target datalayout = "e-m:e-p270:32:32-p271:32:32-p272:64:64-i64:64-i128:128-f80:128-n8:16:32:64-S128"
target triple = "x86_64-pc-linux-gnu"

%"class.std::optional.33" = type { %"struct.std::_Optional_base.34" }
%"struct.std::_Optional_base.34" = type { %"struct.std::_Optional_payload.36" }
%"struct.std::_Optional_payload.36" = type { %"struct.std::_Optional_payload.base.43", [7 x i8] }
%"struct.std::_Optional_payload.base.43" = type { %"struct.std::_Optional_payload_base.base.42" }
%"struct.std::_Optional_payload_base.base.42" = type <{ %"union.std::_Optional_payload_base<std::__cxx11::basic_string<char>>::_Storage", i8 }>
%"union.std::_Optional_payload_base<std::__cxx11::basic_string<char>>::_Storage" = type { %"class.std::__cxx11::basic_string" }
%"class.std::__cxx11::basic_string" = type { %"struct.std::__cxx11::basic_string<char>::_Alloc_hider", i64, %union.anon }
%"struct.std::__cxx11::basic_string<char>::_Alloc_hider" = type { ptr }
%union.anon = type { i64, [8 x i8] }
%"struct.Luau::MetatableType" = type { ptr, ptr, %"class.std::optional.33" }

; Function Attrs: mustprogress uwtable
define dso_local noundef zeroext i1 @_ZN4Luau8Unifier25unifyEPKNS_13MetatableTypeES3_(ptr noundef nonnull align 8 dereferenceable(336) %0, ptr noundef %1, ptr noundef %2) #2 align 2 {
  %4 = alloca ptr, align 8
  %5 = alloca ptr, align 8
  %6 = alloca ptr, align 8
  store ptr %0, ptr %4, align 8, !tbaa !8
  store ptr %1, ptr %5, align 8, !tbaa !181
  store ptr %2, ptr %6, align 8, !tbaa !181
  %7 = load ptr, ptr %4, align 8
  %8 = load ptr, ptr %5, align 8, !tbaa !181
  %9 = getelementptr inbounds nuw %"struct.Luau::MetatableType", ptr %8, i32 0, i32 1
  %10 = load ptr, ptr %9, align 8, !tbaa !268
  %11 = load ptr, ptr %6, align 8, !tbaa !181
  %12 = getelementptr inbounds nuw %"struct.Luau::MetatableType", ptr %11, i32 0, i32 1
  %13 = load ptr, ptr %12, align 8, !tbaa !268
  %14 = call noundef zeroext i1 @_ZN4Luau8Unifier25unifyEPKNS_4TypeES3_(ptr noundef nonnull align 8 dereferenceable(336) %7, ptr noundef %10, ptr noundef %13)
  br i1 %14, label %15, label %23

15:                                               ; preds = %3
  %16 = load ptr, ptr %5, align 8, !tbaa !181
  %17 = getelementptr inbounds nuw %"struct.Luau::MetatableType", ptr %16, i32 0, i32 0
  %18 = load ptr, ptr %17, align 8, !tbaa !183
  %19 = load ptr, ptr %6, align 8, !tbaa !181
  %20 = getelementptr inbounds nuw %"struct.Luau::MetatableType", ptr %19, i32 0, i32 0
  %21 = load ptr, ptr %20, align 8, !tbaa !183
  %22 = call noundef zeroext i1 @_ZN4Luau8Unifier25unifyEPKNS_4TypeES3_(ptr noundef nonnull align 8 dereferenceable(336) %7, ptr noundef %18, ptr noundef %21)
  br label %23

23:                                               ; preds = %15, %3
  %24 = phi i1 [ false, %3 ], [ %22, %15 ]
  ret i1 %24
}