; Function Attrs: mustprogress uwtable
define dso_local noundef zeroext i1 @_ZN4Luau8Unifier25unifyEPKNS_13MetatableTypeES3_(ptr noundef nonnull align 8 dereferenceable(336) %0, ptr noundef readonly captures(none) %1, ptr noundef readonly captures(none) %2) local_unnamed_addr #4 align 2 {
  %4 = getelementptr inbounds nuw i8, ptr %1, i64 8
  %5 = load ptr, ptr %4, align 8, !tbaa !243
  %6 = getelementptr inbounds nuw i8, ptr %2, i64 8
  %7 = load ptr, ptr %6, align 8, !tbaa !243
  %8 = tail call noundef zeroext i1 @_ZN4Luau8Unifier25unifyEPKNS_4TypeES3_(ptr noundef nonnull align 8 dereferenceable(336) %0, ptr noundef %5, ptr noundef %7)
  br i1 %8, label %9, label %13

9:                                                ; preds = %3
  %10 = load ptr, ptr %1, align 8, !tbaa !152
  %11 = load ptr, ptr %2, align 8, !tbaa !152
  %12 = tail call noundef zeroext i1 @_ZN4Luau8Unifier25unifyEPKNS_4TypeES3_(ptr noundef nonnull align 8 dereferenceable(336) %0, ptr noundef %10, ptr noundef %11)
  br label %13

13:                                               ; preds = %9, %3
  %14 = phi i1 [ false, %3 ], [ %12, %9 ]
  ret i1 %14
}